(dp1
S'agents'
p2
(lp3
(igame
Agent
p4
(dp5
S'index'
p6
I0
sba(igame
Agent
p7
(dp8
g6
I0
sba(igame
Agent
p9
(dp10
g6
I0
sba(igame
Agent
p11
(dp12
g6
I0
sbasS'length'
p13
I3000
sS'layout'
p14
(ilayout
Layout
p15
(dp16
S'capsules'
p17
(lp18
(I6
I5
tp19
a(I25
I10
tp20
asS'numGhosts'
p21
I4
sS'food'
p22
(igame
Grid
p23
(dp24
S'CELLS_PER_INT'
p25
I30
sS'width'
p26
I32
sS'data'
p27
(lp28
(lp29
I00
aI00
aI00
aI00
aI00
aI00
aI00
aI00
aI00
aI00
aI00
aI00
aI00
aI00
aI00
aI00
aa(lp30
I00
aI00
aI00
aI00
aI00
aI00
aI00
aI00
aI00
aI00
aI00
aI00
aI00
aI00
aI00
aI00
aa(lp31
I00
aI00
aI00
aI00
aI00
aI00
aI00
aI00
aI00
aI00
aI00
aI00
aI00
aI00
aI00
aI00
aa(lp32
I00
aI01
aI01
aI00
aI00
aI00
aI00
aI00
aI01
aI00
aI00
aI00
aI00
aI00
aI00
aI00
aa(lp33
I00
aI00
aI00
aI00
aI00
aI00
aI00
aI00
aI00
aI00
aI00
aI00
aI00
aI00
aI00
aI00
aa(lp34
I00
aI01
aI00
aI00
aI00
aI00
aI00
aI00
aI00
aI00
aI00
aI00
aI01
aI00
aI01
aI00
aa(lp35
I00
aI00
aI00
aI00
aI00
aI00
aI00
aI00
aI00
aI00
aI00
aI00
aI00
aI00
aI00
aI00
aa(lp36
I00
aI00
aI00
aI01
aI00
aI00
aI00
aI00
aI01
aI01
aI00
aI00
aI00
aI00
aI00
aI00
aa(lp37
I00
aI00
aI00
aI01
aI00
aI00
aI00
aI00
aI00
aI01
aI00
aI00
aI00
aI00
aI01
aI00
aa(lp38
I00
aI00
aI00
aI00
aI00
aI01
aI00
aI00
aI00
aI00
aI00
aI01
aI00
aI00
aI00
aI00
aa(lp39
I00
aI00
aI00
aI01
aI00
aI00
aI00
aI01
aI00
aI01
aI00
aI01
aI00
aI00
aI01
aI00
aa(lp40
I00
aI00
aI00
aI00
aI00
aI00
aI00
aI00
aI00
aI00
aI00
aI00
aI00
aI00
aI00
aI00
aa(lp41
I00
aI00
aI00
aI00
aI00
aI00
aI00
aI00
aI00
aI00
aI00
aI00
aI00
aI00
aI00
aI00
aa(lp42
I00
aI00
aI00
aI00
aI00
aI00
aI00
aI00
aI00
aI00
aI00
aI00
aI00
aI00
aI00
aI00
aa(lp43
I00
aI00
aI00
aI00
aI00
aI00
aI00
aI00
aI00
aI01
aI00
aI00
aI00
aI00
aI00
aI00
aa(lp44
I00
aI00
aI00
aI00
aI00
aI00
aI00
aI00
aI00
aI00
aI00
aI00
aI00
aI00
aI00
aI00
aa(lp45
I00
aI00
aI00
aI00
aI00
aI00
aI00
aI00
aI00
aI00
aI00
aI00
aI00
aI00
aI00
aI00
aa(lp46
I00
aI00
aI00
aI00
aI00
aI00
aI01
aI00
aI00
aI00
aI00
aI00
aI00
aI00
aI00
aI00
aa(lp47
I00
aI00
aI00
aI00
aI00
aI00
aI00
aI00
aI00
aI00
aI00
aI00
aI00
aI00
aI00
aI00
aa(lp48
I00
aI00
aI00
aI00
aI00
aI00
aI00
aI00
aI00
aI00
aI00
aI00
aI00
aI00
aI00
aI00
aa(lp49
I00
aI00
aI00
aI00
aI00
aI00
aI00
aI00
aI00
aI00
aI00
aI00
aI00
aI00
aI00
aI00
aa(lp50
I00
aI01
aI00
aI00
aI01
aI00
aI01
aI00
aI01
aI00
aI00
aI00
aI01
aI00
aI00
aI00
aa(lp51
I00
aI00
aI00
aI00
aI01
aI00
aI00
aI00
aI00
aI00
aI01
aI00
aI00
aI00
aI00
aI00
aa(lp52
I00
aI01
aI00
aI00
aI00
aI00
aI01
aI00
aI00
aI00
aI00
aI00
aI01
aI00
aI00
aI00
aa(lp53
I00
aI00
aI00
aI00
aI00
aI00
aI01
aI01
aI00
aI00
aI00
aI00
aI01
aI00
aI00
aI00
aa(lp54
I00
aI00
aI00
aI00
aI00
aI00
aI00
aI00
aI00
aI00
aI00
aI00
aI00
aI00
aI00
aI00
aa(lp55
I00
aI01
aI00
aI01
aI00
aI00
aI00
aI00
aI00
aI00
aI00
aI00
aI00
aI00
aI01
aI00
aa(lp56
I00
aI00
aI00
aI00
aI00
aI00
aI00
aI00
aI00
aI00
aI00
aI00
aI00
aI00
aI00
aI00
aa(lp57
I00
aI00
aI00
aI00
aI00
aI00
aI00
aI01
aI00
aI00
aI00
aI00
aI00
aI01
aI01
aI00
aa(lp58
I00
aI00
aI00
aI00
aI00
aI00
aI00
aI00
aI00
aI00
aI00
aI00
aI00
aI00
aI00
aI00
aa(lp59
I00
aI00
aI00
aI00
aI00
aI00
aI00
aI00
aI00
aI00
aI00
aI00
aI00
aI00
aI00
aI00
aa(lp60
I00
aI00
aI00
aI00
aI00
aI00
aI00
aI00
aI00
aI00
aI00
aI00
aI00
aI00
aI00
aI00
aasS'height'
p61
I16
sbsS'agentPositions'
p62
(lp63
(I00
(I1
I2
tp64
tp65
a(I00
(I30
I13
tp66
tp67
a(I00
(I1
I1
tp68
tp69
a(I00
(I30
I14
tp70
tp71
asg61
I16
sg26
I32
sS'walls'
p72
(igame
Grid
p73
(dp74
g25
I30
sg26
I32
sg27
(lp75
(lp76
I01
aI01
aI01
aI01
aI01
aI01
aI01
aI01
aI01
aI01
aI01
aI01
aI01
aI01
aI01
aI01
aa(lp77
I01
aI00
aI00
aI00
aI00
aI00
aI00
aI00
aI00
aI00
aI00
aI00
aI00
aI00
aI00
aI01
aa(lp78
I01
aI01
aI01
aI01
aI01
aI01
aI01
aI01
aI01
aI01
aI01
aI01
aI01
aI01
aI00
aI01
aa(lp79
I01
aI00
aI00
aI00
aI00
aI00
aI00
aI01
aI00
aI01
aI00
aI00
aI00
aI00
aI00
aI01
aa(lp80
I01
aI01
aI01
aI01
aI01
aI01
aI00
aI00
aI00
aI00
aI00
aI01
aI01
aI01
aI01
aI01
aa(lp81
I01
aI00
aI00
aI00
aI00
aI00
aI00
aI00
aI01
aI01
aI00
aI01
aI00
aI01
aI00
aI01
aa(lp82
I01
aI01
aI00
aI01
aI01
aI00
aI01
aI01
aI01
aI00
aI00
aI00
aI00
aI00
aI00
aI01
aa(lp83
I01
aI00
aI00
aI00
aI01
aI00
aI00
aI01
aI00
aI00
aI01
aI01
aI01
aI00
aI01
aI01
aa(lp84
I01
aI00
aI01
aI00
aI01
aI01
aI00
aI01
aI01
aI00
aI01
aI00
aI00
aI00
aI00
aI01
aa(lp85
I01
aI00
aI01
aI01
aI01
aI00
aI00
aI01
aI01
aI01
aI01
aI00
aI01
aI00
aI01
aI01
aa(lp86
I01
aI00
aI01
aI00
aI01
aI01
aI00
aI00
aI01
aI00
aI01
aI00
aI01
aI00
aI00
aI01
aa(lp87
I01
aI00
aI00
aI00
aI00
aI01
aI00
aI01
aI01
aI00
aI01
aI01
aI01
aI00
aI01
aI01
aa(lp88
I01
aI01
aI00
aI01
aI00
aI01
aI00
aI00
aI00
aI00
aI00
aI00
aI00
aI00
aI00
aI01
aa(lp89
I01
aI00
aI00
aI01
aI00
aI00
aI00
aI00
aI00
aI01
aI01
aI01
aI00
aI01
aI00
aI01
aa(lp90
I01
aI00
aI01
aI01
aI01
aI00
aI01
aI00
aI00
aI00
aI01
aI00
aI00
aI01
aI00
aI01
aa(lp91
I01
aI00
aI00
aI01
aI00
aI00
aI01
aI00
aI00
aI01
aI01
aI00
aI00
aI00
aI00
aI01
aa(lp92
I01
aI00
aI00
aI00
aI00
aI01
aI01
aI00
aI00
aI01
aI00
aI00
aI01
aI00
aI00
aI01
aa(lp93
I01
aI00
aI01
aI00
aI00
aI01
aI00
aI00
aI00
aI01
aI00
aI01
aI01
aI01
aI00
aI01
aa(lp94
I01
aI00
aI01
aI00
aI01
aI01
aI01
aI00
aI00
aI00
aI00
aI00
aI01
aI00
aI00
aI01
aa(lp95
I01
aI00
aI00
aI00
aI00
aI00
aI00
aI00
aI00
aI00
aI01
aI00
aI01
aI00
aI01
aI01
aa(lp96
I01
aI01
aI00
aI01
aI01
aI01
aI00
aI01
aI01
aI00
aI01
aI00
aI00
aI00
aI00
aI01
aa(lp97
I01
aI00
aI00
aI01
aI00
aI01
aI00
aI01
aI00
aI00
aI01
aI01
aI00
aI01
aI00
aI01
aa(lp98
I01
aI01
aI00
aI01
aI00
aI01
aI01
aI01
aI01
aI00
aI00
aI01
aI01
aI01
aI00
aI01
aa(lp99
I01
aI00
aI00
aI00
aI00
aI01
aI00
aI01
aI01
aI00
aI01
aI01
aI00
aI01
aI00
aI01
aa(lp100
I01
aI01
aI00
aI01
aI01
aI01
aI00
aI00
aI01
aI00
aI00
aI01
aI00
aI00
aI00
aI01
aa(lp101
I01
aI00
aI00
aI00
aI00
aI00
aI00
aI01
aI01
aI01
aI00
aI01
aI01
aI00
aI01
aI01
aa(lp102
I01
aI00
aI01
aI00
aI01
aI00
aI01
aI01
aI00
aI00
aI00
aI00
aI00
aI00
aI00
aI01
aa(lp103
I01
aI01
aI01
aI01
aI01
aI00
aI00
aI00
aI00
aI00
aI01
aI01
aI01
aI01
aI01
aI01
aa(lp104
I01
aI00
aI00
aI00
aI00
aI00
aI01
aI00
aI01
aI00
aI00
aI00
aI00
aI00
aI00
aI01
aa(lp105
I01
aI00
aI01
aI01
aI01
aI01
aI01
aI01
aI01
aI01
aI01
aI01
aI01
aI01
aI01
aI01
aa(lp106
I01
aI00
aI00
aI00
aI00
aI00
aI00
aI00
aI00
aI00
aI00
aI00
aI00
aI00
aI00
aI01
aa(lp107
I01
aI01
aI01
aI01
aI01
aI01
aI01
aI01
aI01
aI01
aI01
aI01
aI01
aI01
aI01
aI01
aasg61
I16
sbsS'layoutText'
p108
(lp109
S'%%%%%%%%%%%%%%%%%%%%%%%%%%%%%%%%'
p110
aS'%   %. %.%.%       %     %.%.%4%'
p111
aS'% % %%       %%  %   %%%   %.%2%'
p112
aS'% % %. % %%%    %%%% .%..% % % %'
p113
aS'% % %% % ..% %   %   %%%%% % % %'
p114
aS'% %    %%%%% %%%   %%%.% o % % %'
p115
aS'% %% % ..%.  %.%%%       %   % %'
p116
aS'% %. %%.%%%%        %.%%%%  %% %'
p117
aS'% %%  %%%%.%        %%%%.%% .% %'
p118
aS'% %   %       %%%.%  .%.. % %% %'
p119
aS'% % % o %.%%%   %%% %%%%%    % %'
p120
aS'% % % %%%%%   %   % %.. % %% % %'
p121
aS'% % % %..%. %%%%    %%% % .% % %'
p122
aS'%1%.%   %%%   %  %%       %% % %'
p123
aS'%3%.%.%     %       %.%.% .%   %'
p124
aS'%%%%%%%%%%%%%%%%%%%%%%%%%%%%%%%%'
p125
asbsS'actions'
p126
(lp127
(I1
S'South'
p128
tp129
a(I2
S'North'
p130
tp131
a(I3
g128
tp132
a(I0
g130
tp133
a(I1
g128
tp134
a(I2
g130
tp135
a(I3
g128
tp136
a(I0
g130
tp137
a(I1
g128
tp138
a(I2
g130
tp139
a(I3
g128
tp140
a(I0
g130
tp141
a(I1
g128
tp142
a(I2
g130
tp143
a(I3
g128
tp144
a(I0
g130
tp145
a(I1
g128
tp146
a(I2
g130
tp147
a(I3
g128
tp148
a(I0
g130
tp149
a(I1
g128
tp150
a(I2
g130
tp151
a(I3
g128
tp152
a(I0
g130
tp153
a(I1
g128
tp154
a(I2
g130
tp155
a(I3
g128
tp156
a(I0
g130
tp157
a(I1
g128
tp158
a(I2
g130
tp159
a(I3
g128
tp160
a(I0
g130
tp161
a(I1
g128
tp162
a(I2
g130
tp163
a(I3
g128
tp164
a(I0
g130
tp165
a(I1
g128
tp166
a(I2
g130
tp167
a(I3
g128
tp168
a(I0
g130
tp169
a(I1
g128
tp170
a(I2
g130
tp171
a(I3
g128
tp172
a(I0
g130
tp173
a(I1
g128
tp174
a(I2
g130
tp175
a(I3
g128
tp176
a(I0
g130
tp177
a(I1
S'West'
p178
tp179
a(I2
g130
tp180
a(I3
g128
tp181
a(I0
S'East'
p182
tp183
a(I1
g178
tp184
a(I2
g182
tp185
a(I3
g178
tp186
a(I0
g182
tp187
a(I1
g130
tp188
a(I2
g182
tp189
a(I3
g178
tp190
a(I0
g128
tp191
a(I1
g130
tp192
a(I2
g128
tp193
a(I3
g130
tp194
a(I0
g128
tp195
a(I1
g130
tp196
a(I2
g128
tp197
a(I3
g130
tp198
a(I0
g128
tp199
a(I1
g130
tp200
a(I2
g128
tp201
a(I3
g130
tp202
a(I0
g128
tp203
a(I1
g178
tp204
a(I2
g128
tp205
a(I3
g130
tp206
a(I0
g182
tp207
a(I1
g130
tp208
a(I2
g182
tp209
a(I3
g178
tp210
a(I0
g128
tp211
a(I1
g130
tp212
a(I2
g182
tp213
a(I3
g130
tp214
a(I0
g128
tp215
a(I1
g130
tp216
a(I2
g182
tp217
a(I3
g130
tp218
a(I0
g128
tp219
a(I1
g178
tp220
a(I2
g130
tp221
a(I3
g182
tp222
a(I0
g128
tp223
a(I1
g130
tp224
a(I2
g130
tp225
a(I3
g178
tp226
a(I0
g182
tp227
a(I1
g130
tp228
a(I2
g178
tp229
a(I3
g130
tp230
a(I0
g128
tp231
a(I1
g178
tp232
a(I2
g182
tp233
a(I3
g130
tp234
a(I0
g182
tp235
a(I1
g178
tp236
a(I2
g128
tp237
a(I3
g178
tp238
a(I0
g182
tp239
a(I1
g128
tp240
a(I2
g128
tp241
a(I3
g130
tp242
a(I0
g130
tp243
a(I1
g178
tp244
a(I2
g178
tp245
a(I3
g178
tp246
a(I0
g182
tp247
a(I1
g178
tp248
a(I2
g178
tp249
a(I3
g178
tp250
a(I0
g182
tp251
a(I1
g178
tp252
a(I2
g178
tp253
a(I3
g128
tp254
a(I0
g182
tp255
a(I1
g178
tp256
a(I2
g130
tp257
a(I3
g178
tp258
a(I0
g182
tp259
a(I1
g178
tp260
a(I2
g130
tp261
a(I3
g178
tp262
a(I0
g182
tp263
a(I1
g128
tp264
a(I2
g130
tp265
a(I3
g178
tp266
a(I0
g130
tp267
a(I1
g178
tp268
a(I2
g130
tp269
a(I3
g178
tp270
a(I0
g182
tp271
a(I1
g178
tp272
a(I2
g178
tp273
a(I3
g178
tp274
a(I0
g182
tp275
a(I1
g178
tp276
a(I2
g178
tp277
a(I3
g178
tp278
a(I0
g182
tp279
a(I1
g178
tp280
a(I2
g182
tp281
a(I3
g130
tp282
a(I0
g182
tp283
a(I1
g178
tp284
a(I2
g182
tp285
a(I3
g128
tp286
a(I0
g182
tp287
a(I1
g130
tp288
a(I2
g128
tp289
a(I3
g128
tp290
a(I0
g128
tp291
a(I1
g128
tp292
a(I2
g128
tp293
a(I3
g178
tp294
a(I0
g130
tp295
a(I1
g178
tp296
a(I2
g128
tp297
a(I3
g128
tp298
a(I0
g130
tp299
a(I1
g178
tp300
a(I2
g128
tp301
a(I3
g178
tp302
a(I0
g130
tp303
a(I1
g130
tp304
a(I2
g182
tp305
a(I3
g130
tp306
a(I0
g130
tp307
a(I1
g178
tp308
a(I2
g182
tp309
a(I3
g182
tp310
a(I0
g130
tp311
a(I1
g178
tp312
a(I2
g182
tp313
a(I3
g182
tp314
a(I0
g130
tp315
a(I1
g182
tp316
a(I2
g128
tp317
a(I3
g130
tp318
a(I0
g130
tp319
a(I1
g182
tp320
a(I2
g182
tp321
a(I3
g130
tp322
a(I0
g130
tp323
a(I1
g128
tp324
a(I2
g128
tp325
a(I3
g178
tp326
a(I0
g130
tp327
a(I1
g128
tp328
a(I2
g130
tp329
a(I3
g178
tp330
a(I0
g130
tp331
a(I1
g128
tp332
a(I2
g182
tp333
a(I3
g130
tp334
a(I0
g130
tp335
a(I1
g178
tp336
a(I2
g178
tp337
a(I3
g128
tp338
a(I0
g130
tp339
a(I1
g178
tp340
a(I2
g128
tp341
a(I3
g182
tp342
a(I0
g130
tp343
a(I1
g130
tp344
a(I2
g130
tp345
a(I3
g182
tp346
a(I0
g182
tp347
a(I1
g128
tp348
a(I2
g182
tp349
a(I3
g128
tp350
a(I0
g182
tp351
a(I1
g178
tp352
a(I2
g178
tp353
a(I3
g182
tp354
a(I0
g128
tp355
a(I1
g128
tp356
a(I2
g128
tp357
a(I3
g128
tp358
a(I0
g128
tp359
a(I1
g130
tp360
a(I2
g130
tp361
a(I3
g178
tp362
a(I0
g128
tp363
a(I1
g178
tp364
a(I2
g178
tp365
a(I3
g128
tp366
a(I0
g128
tp367
a(I1
g178
tp368
a(I2
g130
tp369
a(I3
g182
tp370
a(I0
g182
tp371
a(I1
g128
tp372
a(I2
g130
tp373
a(I3
g128
tp374
a(I0
g182
tp375
a(I1
g178
tp376
a(I2
g130
tp377
a(I3
g128
tp378
a(I0
g182
tp379
a(I1
g178
tp380
a(I2
g178
tp381
a(I3
g128
tp382
a(I0
g130
tp383
a(I1
g128
tp384
a(I2
g182
tp385
a(I3
g128
tp386
a(I0
g130
tp387
a(I1
g128
tp388
a(I2
g130
tp389
a(I3
g178
tp390
a(I0
g130
tp391
a(I1
g128
tp392
a(I2
g182
tp393
a(I3
g178
tp394
a(I0
g182
tp395
a(I1
g128
tp396
a(I2
g182
tp397
a(I3
g130
tp398
a(I0
g182
tp399
a(I1
g130
tp400
a(I2
g182
tp401
a(I3
g178
tp402
a(I0
g182
tp403
a(I1
g182
tp404
a(I2
g182
tp405
a(I3
g128
tp406
a(I0
g182
tp407
a(I1
g182
tp408
a(I2
g182
tp409
a(I3
g128
tp410
a(I0
g182
tp411
a(I1
g130
tp412
a(I2
g182
tp413
a(I3
g128
tp414
a(I0
g182
tp415
a(I1
g182
tp416
a(I2
g130
tp417
a(I3
g182
tp418
a(I0
g130
tp419
a(I1
g178
tp420
a(I2
g182
tp421
a(I3
g182
tp422
a(I0
g182
tp423
a(I1
g128
tp424
a(I2
g182
tp425
a(I3
g182
tp426
a(I0
g182
tp427
a(I1
g128
tp428
a(I2
g182
tp429
a(I3
g130
tp430
a(I0
g182
tp431
a(I1
g182
tp432
a(I2
g128
tp433
a(I3
g182
tp434
a(I0
g182
tp435
a(I1
g182
tp436
a(I2
g128
tp437
a(I3
g182
tp438
a(I0
g182
tp439
a(I1
g182
tp440
a(I2
g128
tp441
a(I3
g182
tp442
a(I0
g182
tp443
a(I1
g182
tp444
a(I2
g178
tp445
a(I3
g182
tp446
a(I0
g128
tp447
a(I1
g130
tp448
a(I2
g130
tp449
a(I3
g128
tp450
a(I0
g182
tp451
a(I1
g130
tp452
a(I2
g182
tp453
a(I3
g130
tp454
a(I0
g182
tp455
a(I1
g178
tp456
a(I2
g128
tp457
a(I3
g178
tp458
a(I0
g128
tp459
a(I1
g182
tp460
a(I2
g178
tp461
a(I3
g178
tp462
a(I0
g182
tp463
a(I1
g130
tp464
a(I2
g130
tp465
a(I3
g178
tp466
a(I0
g178
tp467
a(I1
g182
tp468
a(I2
g178
tp469
a(I3
g178
tp470
a(I0
g130
tp471
a(I1
g182
tp472
a(I2
g178
tp473
a(I3
g130
tp474
a(I0
g130
tp475
a(I1
g130
tp476
a(I2
g128
tp477
a(I3
g178
tp478
a(I0
g182
tp479
a(I1
g130
tp480
a(I2
g128
tp481
a(I3
g178
tp482
a(I0
g182
tp483
a(I1
g130
tp484
a(I2
g128
tp485
a(I3
g178
tp486
a(I0
g182
tp487
a(I1
g178
tp488
a(I2
g128
tp489
a(I3
g130
tp490
a(I0
g182
tp491
a(I1
g130
tp492
a(I2
g130
tp493
a(I3
g182
tp494
a(I0
g128
tp495
a(I1
g130
tp496
a(I2
g130
tp497
a(I3
g128
tp498
a(I0
g128
tp499
a(I1
g130
tp500
a(I2
g130
tp501
a(I3
g182
tp502
a(I0
g178
tp503
a(I1
g130
tp504
a(I2
g130
tp505
a(I3
g182
tp506
a(I0
g182
tp507
a(I1
g130
tp508
a(I2
g130
tp509
a(I3
g130
tp510
a(I0
g130
tp511
a(I1
g130
tp512
a(I2
g130
tp513
a(I3
g130
tp514
a(I0
g182
tp515
a(I1
g178
tp516
a(I2
g130
tp517
a(I3
g130
tp518
a(I0
g182
tp519
a(I1
g178
tp520
a(I2
g130
tp521
a(I3
g182
tp522
a(I0
g130
tp523
a(I1
g130
tp524
a(I2
g130
tp525
a(I3
g182
tp526
a(I0
g128
tp527
a(I1
g128
tp528
a(I2
g130
tp529
a(I3
g178
tp530
a(I0
g128
tp531
a(I1
g178
tp532
a(I2
g130
tp533
a(I3
g178
tp534
a(I0
g128
tp535
a(I1
g178
tp536
a(I2
g130
tp537
a(I3
g130
tp538
a(I0
g128
tp539
a(I1
g130
tp540
a(I2
g130
tp541
a(I3
g178
tp542
a(I0
g128
tp543
a(I1
g128
tp544
a(I2
g182
tp545
a(I3
g178
tp546
a(I0
g182
tp547
a(I1
g128
tp548
a(I2
g182
tp549
a(I3
g130
tp550
a(I0
g128
tp551
a(I1
g128
tp552
a(I2
g128
tp553
a(I3
g178
tp554
a(I0
g128
tp555
a(I1
g182
tp556
a(I2
g128
tp557
a(I3
g128
tp558
a(I0
g182
tp559
a(I1
g182
tp560
a(I2
g128
tp561
a(I3
g182
tp562
a(I0
g178
tp563
a(I1
g178
tp564
a(I2
g128
tp565
a(I3
g182
tp566
a(I0
g128
tp567
a(I1
g178
tp568
a(I2
g182
tp569
a(I3
g182
tp570
a(I0
g128
tp571
a(I1
g130
tp572
a(I2
g182
tp573
a(I3
g130
tp574
a(I0
g178
tp575
a(I1
g130
tp576
a(I2
g182
tp577
a(I3
g178
tp578
a(I0
g178
tp579
a(I1
g178
tp580
a(I2
g130
tp581
a(I3
g130
tp582
a(I0
g130
tp583
a(I1
g178
tp584
a(I2
g130
tp585
a(I3
g182
tp586
a(I0
g178
tp587
a(I1
g130
tp588
a(I2
g130
tp589
a(I3
g182
tp590
a(I0
g178
tp591
a(I1
g178
tp592
a(I2
g130
tp593
a(I3
g182
tp594
a(I0
g182
tp595
a(I1
S'Stop'
p596
tp597
a(I2
g178
tp598
a(I3
g182
tp599
a(I0
g130
tp600
a(I1
g128
tp601
a(I2
g182
tp602
a(I3
g182
tp603
a(I0
g128
tp604
a(I1
g128
tp605
a(I2
g128
tp606
a(I3
g182
tp607
a(I0
g182
tp608
a(I1
g128
tp609
a(I2
g182
tp610
a(I3
g130
tp611
a(I0
g128
tp612
a(I1
g128
tp613
a(I2
g182
tp614
a(I3
g182
tp615
a(I0
g128
tp616
a(I1
g128
tp617
a(I2
g182
tp618
a(I3
g182
tp619
a(I0
g128
tp620
a(I1
g128
tp621
a(I2
g182
tp622
a(I3
g128
tp623
a(I0
g182
tp624
a(I1
g128
tp625
a(I2
g130
tp626
a(I3
g128
tp627
a(I0
g178
tp628
a(I1
g128
tp629
a(I2
g128
tp630
a(I3
g182
tp631
a(I0
g128
tp632
a(I1
g128
tp633
a(I2
g178
tp634
a(I3
g128
tp635
a(I0
g128
tp636
a(I1
g128
tp637
a(I2
g178
tp638
a(I3
g128
tp639
a(I0
g182
tp640
a(I1
g128
tp641
a(I2
g128
tp642
a(I3
g128
tp643
a(I0
g178
tp644
a(I1
g128
tp645
a(I2
g128
tp646
a(I3
g178
tp647
a(I0
g130
tp648
a(I1
g178
tp649
a(I2
g182
tp650
a(I3
g178
tp651
a(I0
g178
tp652
a(I1
g178
tp653
a(I2
g182
tp654
a(I3
g128
tp655
a(I0
g178
tp656
a(I1
g130
tp657
a(I2
g178
tp658
a(I3
g128
tp659
a(I0
g128
tp660
a(I1
g130
tp661
a(I2
g178
tp662
a(I3
g128
tp663
a(I0
g130
tp664
a(I1
g130
tp665
a(I2
g130
tp666
a(I3
g178
tp667
a(I0
g130
tp668
a(I1
g130
tp669
a(I2
g130
tp670
a(I3
g178
tp671
a(I0
g130
tp672
a(I1
g178
tp673
a(I2
g182
tp674
a(I3
g130
tp675
a(I0
g178
tp676
a(I1
g130
tp677
a(I2
g182
tp678
a(I3
g130
tp679
a(I0
g178
tp680
a(I1
g130
tp681
a(I2
g130
tp682
a(I3
g178
tp683
a(I0
g596
tp684
a(I1
g130
tp685
a(I2
g128
tp686
a(I3
g178
tp687
a(I0
g130
tp688
a(I1
g178
tp689
a(I2
g182
tp690
a(I3
g182
tp691
a(I0
g130
tp692
a(I1
g130
tp693
a(I2
g182
tp694
a(I3
g182
tp695
a(I0
g130
tp696
a(I1
g130
tp697
a(I2
g128
tp698
a(I3
g128
tp699
a(I0
g130
tp700
a(I1
g178
tp701
a(I2
g128
tp702
a(I3
g128
tp703
a(I0
g130
tp704
a(I1
g178
tp705
a(I2
g128
tp706
a(I3
g128
tp707
a(I0
g130
tp708
a(I1
g128
tp709
a(I2
g128
tp710
a(I3
g130
tp711
a(I0
g130
tp712
a(I1
g178
tp713
a(I2
g128
tp714
a(I3
g130
tp715
a(I0
g130
tp716
a(I1
g178
tp717
a(I2
g182
tp718
a(I3
g130
tp719
a(I0
g130
tp720
a(I1
g178
tp721
a(I2
g128
tp722
a(I3
g178
tp723
a(I0
g130
tp724
a(I1
g178
tp725
a(I2
g182
tp726
a(I3
g178
tp727
a(I0
g130
tp728
a(I1
g178
tp729
a(I2
g130
tp730
a(I3
g182
tp731
a(I0
g130
tp732
a(I1
g178
tp733
a(I2
g130
tp734
a(I3
g182
tp735
a(I0
g182
tp736
a(I1
g130
tp737
a(I2
g128
tp738
a(I3
g128
tp739
a(I0
g182
tp740
a(I1
g178
tp741
a(I2
g128
tp742
a(I3
g128
tp743
a(I0
g128
tp744
a(I1
g178
tp745
a(I2
g182
tp746
a(I3
g128
tp747
a(I0
g128
tp748
a(I1
g130
tp749
a(I2
g130
tp750
a(I3
g130
tp751
a(I0
g128
tp752
a(I1
g178
tp753
a(I2
g178
tp754
a(I3
g130
tp755
a(I0
g128
tp756
a(I1
g130
tp757
a(I2
g178
tp758
a(I3
g130
tp759
a(I0
g182
tp760
a(I1
g178
tp761
a(I2
g178
tp762
a(I3
g178
tp763
a(I0
g128
tp764
a(I1
g178
tp765
a(I2
g130
tp766
a(I3
g178
tp767
a(I0
g128
tp768
a(I1
g178
tp769
a(I2
g130
tp770
a(I3
g182
tp771
a(I0
g128
tp772
a(I1
g130
tp773
a(I2
g130
tp774
a(I3
g182
tp775
a(I0
g128
tp776
a(I1
g178
tp777
a(I2
g130
tp778
a(I3
g128
tp779
a(I0
g182
tp780
a(I1
g178
tp781
a(I2
g130
tp782
a(I3
g128
tp783
a(I0
g128
tp784
a(I1
g178
tp785
a(I2
g178
tp786
a(I3
g182
tp787
a(I0
g182
tp788
a(I1
g178
tp789
a(I2
g178
tp790
a(I3
g182
tp791
a(I0
g182
tp792
a(I1
g178
tp793
a(I2
g178
tp794
a(I3
g130
tp795
a(I0
g130
tp796
a(I1
g178
tp797
a(I2
g178
tp798
a(I3
g130
tp799
a(I0
g182
tp800
a(I1
g128
tp801
a(I2
g178
tp802
a(I3
g130
tp803
a(I0
g182
tp804
a(I1
g178
tp805
a(I2
g178
tp806
a(I3
g130
tp807
a(I0
g182
tp808
a(I1
g182
tp809
a(I2
g128
tp810
a(I3
g178
tp811
a(I0
g182
tp812
a(I1
g128
tp813
a(I2
g128
tp814
a(I3
g178
tp815
a(I0
g182
tp816
a(I1
g128
tp817
a(I2
g128
tp818
a(I3
g182
tp819
a(I0
g182
tp820
a(I1
g128
tp821
a(I2
g128
tp822
a(I3
g182
tp823
a(I0
g130
tp824
a(I1
g128
tp825
a(I2
g182
tp826
a(I3
g128
tp827
a(I0
g182
tp828
a(I1
g128
tp829
a(I2
g128
tp830
a(I3
g128
tp831
a(I0
g182
tp832
a(I1
g128
tp833
a(I2
g130
tp834
a(I3
g128
tp835
a(I0
g182
tp836
a(I1
g128
tp837
a(I2
g178
tp838
a(I3
g128
tp839
a(I0
g182
tp840
a(I1
g128
tp841
a(I2
g130
tp842
a(I3
g178
tp843
a(I0
g182
tp844
a(I1
g128
tp845
a(I2
g178
tp846
a(I3
g178
tp847
a(I0
g182
tp848
a(I1
g128
tp849
a(I2
g178
tp850
a(I3
g130
tp851
a(I0
g128
tp852
a(I1
g128
tp853
a(I2
g128
tp854
a(I3
g130
tp855
a(I0
g182
tp856
a(I1
g128
tp857
a(I2
g128
tp858
a(I3
g128
tp859
a(I0
g182
tp860
a(I1
g178
tp861
a(I2
g178
tp862
a(I3
g128
tp863
a(I0
g178
tp864
a(I1
g178
tp865
a(I2
g182
tp866
a(I3
g128
tp867
a(I0
g178
tp868
a(I1
g130
tp869
a(I2
g130
tp870
a(I3
g130
tp871
a(I0
g130
tp872
a(I1
g130
tp873
a(I2
g130
tp874
a(I3
g178
tp875
a(I0
g130
tp876
a(I1
g130
tp877
a(I2
g182
tp878
a(I3
g178
tp879
a(I0
g130
tp880
a(I1
g130
tp881
a(I2
g182
tp882
a(I3
g178
tp883
a(I0
g182
tp884
a(I1
g178
tp885
a(I2
g130
tp886
a(I3
g178
tp887
a(I0
g182
tp888
a(I1
g178
tp889
a(I2
g130
tp890
a(I3
g130
tp891
a(I0
g128
tp892
a(I1
g178
tp893
a(I2
g130
tp894
a(I3
g130
tp895
a(I0
g130
tp896
a(I1
g128
tp897
a(I2
g130
tp898
a(I3
g130
tp899
a(I0
g182
tp900
a(I1
g128
tp901
a(I2
g178
tp902
a(I3
g130
tp903
a(I0
g130
tp904
a(I1
g128
tp905
a(I2
g182
tp906
a(I3
g130
tp907
a(I0
g128
tp908
a(I1
g178
tp909
a(I2
g128
tp910
a(I3
g130
tp911
a(I0
g182
tp912
a(I1
g178
tp913
a(I2
g182
tp914
a(I3
g130
tp915
a(I0
g182
tp916
a(I1
g178
tp917
a(I2
g182
tp918
a(I3
g182
tp919
a(I0
g130
tp920
a(I1
g178
tp921
a(I2
g128
tp922
a(I3
g182
tp923
a(I0
g182
tp924
a(I1
g178
tp925
a(I2
g128
tp926
a(I3
g182
tp927
a(I0
g182
tp928
a(I1
g178
tp929
a(I2
g182
tp930
a(I3
g182
tp931
a(I0
g128
tp932
a(I1
g130
tp933
a(I2
g182
tp934
a(I3
g182
tp935
a(I0
g182
tp936
a(I1
g178
tp937
a(I2
g178
tp938
a(I3
g130
tp939
a(I0
g182
tp940
a(I1
g178
tp941
a(I2
g178
tp942
a(I3
g182
tp943
a(I0
g130
tp944
a(I1
g178
tp945
a(I2
g130
tp946
a(I3
g182
tp947
a(I0
g130
tp948
a(I1
g130
tp949
a(I2
g130
tp950
a(I3
g128
tp951
a(I0
g130
tp952
a(I1
g178
tp953
a(I2
g178
tp954
a(I3
g182
tp955
a(I0
g130
tp956
as.